; Function Attrs: mustprogress uwtable
define void @_ZN7rocksdb6DBImpl40MaybeReleaseTimestampedSnapshotsAndCheckEv(ptr noalias sret(%"class.rocksdb::Status") align 8 %agg.result, ptr noundef nonnull align 64 dereferenceable(6660) %this) local_unnamed_addr #5 align 2 personality ptr @__gxx_personality_v0 {
entry:
  %num_snapshots = alloca i64, align 8
  %ref.tmp = alloca %"class.rocksdb::Slice", align 8
  %ref.tmp2 = alloca %"class.rocksdb::Slice", align 8
  store i64 0, ptr %num_snapshots, align 8
  call void @_ZN7rocksdb6DBImpl36ReleaseTimestampedSnapshotsOlderThanEmPm(ptr noundef nonnull align 64 dereferenceable(6660) %this, i64 noundef -1, ptr noundef nonnull %num_snapshots)
  %0 = load i64, ptr %num_snapshots, align 8
  %cmp.not = icmp eq i64 %0, 0
  br i1 %cmp.not, label %if.end, label %if.then

if.then:                                          ; preds = %entry
  store ptr @.str.57, ptr %ref.tmp, align 8
  %size_.i = getelementptr inbounds i8, ptr %ref.tmp, i64 8
  store i64 41, ptr %size_.i, align 8
  store ptr @.str, ptr %ref.tmp2, align 8
  %size_.i1 = getelementptr inbounds i8, ptr %ref.tmp2, i64 8
  store i64 0, ptr %size_.i1, align 8
  call void @_ZN7rocksdb6StatusC2ENS0_4CodeENS0_7SubCodeERKNS_5SliceES5_NS0_8SeverityE(ptr noundef nonnull align 8 dereferenceable(16) %agg.result, i8 noundef zeroext 10, i8 noundef zeroext 0, ptr noundef nonnull align 8 dereferenceable(16) %ref.tmp, ptr noundef nonnull align 8 dereferenceable(16) %ref.tmp2, i8 noundef zeroext 0)
  br label %return

if.end:                                           ; preds = %entry
  %state_.i.i = getelementptr inbounds i8, ptr %agg.result, i64 8
  store ptr null, ptr %state_.i.i, align 8, !alias.scope !67
  call void @llvm.memset.p0.i64(ptr noundef nonnull align 8 dereferenceable(6) %agg.result, i8 0, i64 6, i1 false), !alias.scope !67
  br label %return

return:                                           ; preds = %if.end, %if.then
  ret void
}